; Function Attrs: mustprogress uwtable
define hidden void @_ZN17asserted_formulas11assert_exprEP4expr(ptr noundef nonnull align 8 dereferenceable(7236) %0, ptr noundef %1) local_unnamed_addr #3 align 2 {
  %3 = load ptr, ptr %0, align 8, !tbaa !352
  %4 = getelementptr inbounds nuw i8, ptr %3, i64 712
  %5 = load i32, ptr %4, align 8, !tbaa !304
  %.not = icmp eq i32 %5, 0
  br i1 %.not, label %8, label %6

6:                                                ; preds = %2
  %7 = tail call noundef ptr @_ZN11ast_manager11mk_assertedEP4expr(ptr noundef nonnull align 8 dereferenceable(976) %3, ptr noundef %1)
  br label %8

8:                                                ; preds = %2, %6
  %9 = phi ptr [ %7, %6 ], [ null, %2 ]
  tail call void @_ZN17asserted_formulas11assert_exprEP4exprP3app(ptr noundef nonnull align 8 dereferenceable(7236) %0, ptr noundef %1, ptr noundef %9)
  ret void
}